; Function Attrs: mustprogress nofree norecurse nosync nounwind willreturn memory(read, inaccessiblemem: none) uwtable
define noundef zeroext i1 @_ZNK4cvc58internal8TypeNode10isDatatypeEv(ptr noundef nonnull readonly align 8 captures(none) dereferenceable(8) %0) local_unnamed_addr #7 align 2 {
switch.edge:
  %1 = load ptr, ptr %0, align 8, !tbaa !3
  %2 = getelementptr inbounds nuw i8, ptr %1, i64 8
  %3 = load i64, ptr %2, align 8
  %4 = trunc i64 %3 to i32
  %5 = and i32 %4, 1023
  %switch.tableidx = add nsw i32 %5, -228
  %6 = icmp ult i32 %switch.tableidx, 17
  %switch.cast = trunc nsw i32 %switch.tableidx to i17
  %switch.downshift = lshr i17 -65529, %switch.cast
  %switch.masked = trunc i17 %switch.downshift to i1
  %7 = select i1 %6, i1 %switch.masked, i1 false
  ret i1 %7
}